
demo:     file format elf32-littleriscv


Disassembly of section .init:

00000000 <_start>:
   0:	10001197          	auipc	gp,0x10001
   4:	80018193          	addi	gp,gp,-2048 # 10000800 <__global_pointer$>
   8:	10002117          	auipc	sp,0x10002
   c:	ff810113          	addi	sp,sp,-8 # 10002000 <_sp>
  10:	7c000513          	li	a0,1984
  14:	10000597          	auipc	a1,0x10000
  18:	fec58593          	addi	a1,a1,-20 # 10000000 <_data>
  1c:	10000617          	auipc	a2,0x10000
  20:	fe460613          	addi	a2,a2,-28 # 10000000 <_data>
  24:	00c5fc63          	bgeu	a1,a2,3c <_start+0x3c>
  28:	00052283          	lw	t0,0(a0)
  2c:	0055a023          	sw	t0,0(a1)
  30:	00450513          	addi	a0,a0,4
  34:	00458593          	addi	a1,a1,4
  38:	fec5e8e3          	bltu	a1,a2,28 <_start+0x28>
  3c:	10000517          	auipc	a0,0x10000
  40:	fc450513          	addi	a0,a0,-60 # 10000000 <_data>
  44:	88018593          	addi	a1,gp,-1920 # 10000080 <_end>
  48:	00b57863          	bgeu	a0,a1,58 <_start+0x58>
  4c:	00052023          	sw	zero,0(a0)
  50:	00450513          	addi	a0,a0,4
  54:	feb56ce3          	bltu	a0,a1,4c <_start+0x4c>
  58:	0ec000ef          	jal	ra,144 <_init>
  5c:	0a8000ef          	jal	ra,104 <main>

00000060 <loop>:
  60:	0000006f          	j	60 <loop>

Disassembly of section .text:

00000064 <main-0xa0>:
  64:	6854                	flw	fa3,20(s0)
  66:	2065                	jal	10e <main+0xa>
  68:	6572                	flw	fa0,28(sp)
  6a:	746c7573          	csrrci	a0,0x746,24
  6e:	6f20                	flw	fs0,88(a4)
  70:	2066                	fld	ft0,88(sp)
  72:	25203a63          	0x25203a63
  76:	0a64                	addi	s1,sp,284
  78:	0000                	unimp
  7a:	0000                	unimp
  7c:	059c                	addi	a5,sp,704
  7e:	0000                	unimp
  80:	03dc                	addi	a5,sp,452
  82:	0000                	unimp
  84:	0644                	addi	s1,sp,772
  86:	0000                	unimp
  88:	0644                	addi	s1,sp,772
  8a:	0000                	unimp
  8c:	0644                	addi	s1,sp,772
  8e:	0000                	unimp
  90:	0644                	addi	s1,sp,772
  92:	0000                	unimp
  94:	0644                	addi	s1,sp,772
  96:	0000                	unimp
  98:	0644                	addi	s1,sp,772
  9a:	0000                	unimp
  9c:	0644                	addi	s1,sp,772
  9e:	0000                	unimp
  a0:	0284                	addi	s1,sp,320
  a2:	0000                	unimp
  a4:	0644                	addi	s1,sp,772
  a6:	0000                	unimp
  a8:	0644                	addi	s1,sp,772
  aa:	0000                	unimp
  ac:	0644                	addi	s1,sp,772
  ae:	0000                	unimp
  b0:	0290                	addi	a2,sp,320
  b2:	0000                	unimp
  b4:	0644                	addi	s1,sp,772
  b6:	0000                	unimp
  b8:	0644                	addi	s1,sp,772
  ba:	0000                	unimp
  bc:	0528                	addi	a0,sp,648
  be:	0000                	unimp
  c0:	0644                	addi	s1,sp,772
  c2:	0000                	unimp
  c4:	0644                	addi	s1,sp,772
  c6:	0000                	unimp
  c8:	0644                	addi	s1,sp,772
  ca:	0000                	unimp
  cc:	0644                	addi	s1,sp,772
  ce:	0000                	unimp
  d0:	0300                	addi	s0,sp,384
  d2:	0000                	unimp
  d4:	7265                	lui	tp,0xffff9
  d6:	6f72                	flw	ft10,28(sp)
  d8:	3a72                	fld	fs4,312(sp)
  da:	6f20                	flw	fs0,88(a4)
  dc:	7475                	lui	s0,0xffffd
  de:	7570                	flw	fa2,108(a0)
  e0:	2074                	fld	fa3,192(s0)
  e2:	69727473          	csrrci	s0,0x697,4
  e6:	676e                	flw	fa4,216(sp)
  e8:	7320                	flw	fs0,96(a4)
  ea:	7a69                	lui	s4,0xffffa
  ec:	2065                	jal	194 <uart_putc+0x1c>
  ee:	7265766f          	jal	a2,57814 <__stack_size+0x57014>
  f2:	6c66                	flw	fs8,88(sp)
  f4:	000a776f          	jal	a4,a70f4 <__stack_size+0xa68f4>
  f8:	6170                	flw	fa2,68(a0)
  fa:	696e                	flw	fs2,216(sp)
  fc:	00203a63          	0x203a63
 100:	000a                	c.slli	zero,0x2
	...

00000104 <main>:
 104:	fe010113          	addi	sp,sp,-32
 108:	00112e23          	sw	ra,28(sp)
 10c:	00812c23          	sw	s0,24(sp)
 110:	02010413          	addi	s0,sp,32
 114:	00100793          	li	a5,1
 118:	fef42623          	sw	a5,-20(s0) # ffffcfec <_sp+0xefffafec>
 11c:	00200793          	li	a5,2
 120:	fef42423          	sw	a5,-24(s0)
 124:	fec42703          	lw	a4,-20(s0)
 128:	fe842783          	lw	a5,-24(s0)
 12c:	00f707b3          	add	a5,a4,a5
 130:	fef42223          	sw	a5,-28(s0)
 134:	fe442583          	lw	a1,-28(s0)
 138:	06400513          	li	a0,100
 13c:	618000ef          	jal	ra,754 <printf>
 140:	0000006f          	j	140 <main+0x3c>

00000144 <_init>:
 144:	ff010113          	addi	sp,sp,-16
 148:	00812623          	sw	s0,12(sp)
 14c:	01010413          	addi	s0,sp,16
 150:	000007b7          	lui	a5,0x0
 154:	00078793          	mv	a5,a5
 158:	30579073          	csrw	mtvec,a5
 15c:	000027b7          	lui	a5,0x2
 160:	88878793          	addi	a5,a5,-1912 # 1888 <__stack_size+0x1088>
 164:	30079073          	csrw	mstatus,a5
 168:	00000013          	nop
 16c:	00c12403          	lw	s0,12(sp)
 170:	01010113          	addi	sp,sp,16
 174:	00008067          	ret

00000178 <uart_putc>:
 178:	fe010113          	addi	sp,sp,-32
 17c:	00812e23          	sw	s0,28(sp)
 180:	02010413          	addi	s0,sp,32
 184:	00050793          	mv	a5,a0
 188:	fef407a3          	sb	a5,-17(s0)
 18c:	200007b7          	lui	a5,0x20000
 190:	00478793          	addi	a5,a5,4 # 20000004 <_sp+0xfffe004>
 194:	fef44703          	lbu	a4,-17(s0)
 198:	00e78023          	sb	a4,0(a5)
 19c:	00000013          	nop
 1a0:	200007b7          	lui	a5,0x20000
 1a4:	0007c783          	lbu	a5,0(a5) # 20000000 <_sp+0xfffe000>
 1a8:	0027f793          	andi	a5,a5,2
 1ac:	fe078ae3          	beqz	a5,1a0 <uart_putc+0x28>
 1b0:	200007b7          	lui	a5,0x20000
 1b4:	0007c703          	lbu	a4,0(a5) # 20000000 <_sp+0xfffe000>
 1b8:	200007b7          	lui	a5,0x20000
 1bc:	ffd77713          	andi	a4,a4,-3
 1c0:	0ff77713          	andi	a4,a4,255
 1c4:	00e78023          	sb	a4,0(a5) # 20000000 <_sp+0xfffe000>
 1c8:	00000013          	nop
 1cc:	01c12403          	lw	s0,28(sp)
 1d0:	02010113          	addi	sp,sp,32
 1d4:	00008067          	ret

000001d8 <uart_puts>:
 1d8:	fe010113          	addi	sp,sp,-32
 1dc:	00112e23          	sw	ra,28(sp)
 1e0:	00812c23          	sw	s0,24(sp)
 1e4:	02010413          	addi	s0,sp,32
 1e8:	fea42623          	sw	a0,-20(s0)
 1ec:	01c0006f          	j	208 <uart_puts+0x30>
 1f0:	fec42783          	lw	a5,-20(s0)
 1f4:	00178713          	addi	a4,a5,1
 1f8:	fee42623          	sw	a4,-20(s0)
 1fc:	0007c783          	lbu	a5,0(a5)
 200:	00078513          	mv	a0,a5
 204:	f75ff0ef          	jal	ra,178 <uart_putc>
 208:	fec42783          	lw	a5,-20(s0)
 20c:	0007c783          	lbu	a5,0(a5)
 210:	fe0790e3          	bnez	a5,1f0 <uart_puts+0x18>
 214:	00000013          	nop
 218:	01c12083          	lw	ra,28(sp)
 21c:	01812403          	lw	s0,24(sp)
 220:	02010113          	addi	sp,sp,32
 224:	00008067          	ret

00000228 <_vsnprintf>:
 228:	fb010113          	addi	sp,sp,-80
 22c:	04812623          	sw	s0,76(sp)
 230:	05010413          	addi	s0,sp,80
 234:	faa42e23          	sw	a0,-68(s0)
 238:	fab42c23          	sw	a1,-72(s0)
 23c:	fac42a23          	sw	a2,-76(s0)
 240:	fad42823          	sw	a3,-80(s0)
 244:	fe042623          	sw	zero,-20(s0)
 248:	fe042423          	sw	zero,-24(s0)
 24c:	fe042223          	sw	zero,-28(s0)
 250:	4040006f          	j	654 <_vsnprintf+0x42c>
 254:	fec42783          	lw	a5,-20(s0)
 258:	38078a63          	beqz	a5,5ec <_vsnprintf+0x3c4>
 25c:	fb442783          	lw	a5,-76(s0)
 260:	0007c783          	lbu	a5,0(a5)
 264:	f9d78793          	addi	a5,a5,-99
 268:	01500713          	li	a4,21
 26c:	3cf76c63          	bltu	a4,a5,644 <_vsnprintf+0x41c>
 270:	00279713          	slli	a4,a5,0x2
 274:	07c00793          	li	a5,124
 278:	00f707b3          	add	a5,a4,a5
 27c:	0007a783          	lw	a5,0(a5)
 280:	00078067          	jr	a5
 284:	00100793          	li	a5,1
 288:	fef42423          	sw	a5,-24(s0)
 28c:	3bc0006f          	j	648 <_vsnprintf+0x420>
 290:	00100793          	li	a5,1
 294:	fef42423          	sw	a5,-24(s0)
 298:	fbc42783          	lw	a5,-68(s0)
 29c:	02078263          	beqz	a5,2c0 <_vsnprintf+0x98>
 2a0:	fe442703          	lw	a4,-28(s0)
 2a4:	fb842783          	lw	a5,-72(s0)
 2a8:	00f77c63          	bgeu	a4,a5,2c0 <_vsnprintf+0x98>
 2ac:	fbc42703          	lw	a4,-68(s0)
 2b0:	fe442783          	lw	a5,-28(s0)
 2b4:	00f707b3          	add	a5,a4,a5
 2b8:	03000713          	li	a4,48
 2bc:	00e78023          	sb	a4,0(a5)
 2c0:	fe442783          	lw	a5,-28(s0)
 2c4:	00178793          	addi	a5,a5,1
 2c8:	fef42223          	sw	a5,-28(s0)
 2cc:	fbc42783          	lw	a5,-68(s0)
 2d0:	02078263          	beqz	a5,2f4 <_vsnprintf+0xcc>
 2d4:	fe442703          	lw	a4,-28(s0)
 2d8:	fb842783          	lw	a5,-72(s0)
 2dc:	00f77c63          	bgeu	a4,a5,2f4 <_vsnprintf+0xcc>
 2e0:	fbc42703          	lw	a4,-68(s0)
 2e4:	fe442783          	lw	a5,-28(s0)
 2e8:	00f707b3          	add	a5,a4,a5
 2ec:	07800713          	li	a4,120
 2f0:	00e78023          	sb	a4,0(a5)
 2f4:	fe442783          	lw	a5,-28(s0)
 2f8:	00178793          	addi	a5,a5,1
 2fc:	fef42223          	sw	a5,-28(s0)
 300:	fe842783          	lw	a5,-24(s0)
 304:	00078c63          	beqz	a5,31c <_vsnprintf+0xf4>
 308:	fb042783          	lw	a5,-80(s0)
 30c:	00478713          	addi	a4,a5,4
 310:	fae42823          	sw	a4,-80(s0)
 314:	0007a783          	lw	a5,0(a5)
 318:	0140006f          	j	32c <_vsnprintf+0x104>
 31c:	fb042783          	lw	a5,-80(s0)
 320:	00478713          	addi	a4,a5,4
 324:	fae42823          	sw	a4,-80(s0)
 328:	0007a783          	lw	a5,0(a5)
 32c:	fcf42423          	sw	a5,-56(s0)
 330:	00700793          	li	a5,7
 334:	fcf42223          	sw	a5,-60(s0)
 338:	fc442783          	lw	a5,-60(s0)
 33c:	fef42023          	sw	a5,-32(s0)
 340:	0880006f          	j	3c8 <_vsnprintf+0x1a0>
 344:	fe042783          	lw	a5,-32(s0)
 348:	00279793          	slli	a5,a5,0x2
 34c:	fc842703          	lw	a4,-56(s0)
 350:	40f757b3          	sra	a5,a4,a5
 354:	00f7f793          	andi	a5,a5,15
 358:	fcf42023          	sw	a5,-64(s0)
 35c:	fbc42783          	lw	a5,-68(s0)
 360:	04078863          	beqz	a5,3b0 <_vsnprintf+0x188>
 364:	fe442703          	lw	a4,-28(s0)
 368:	fb842783          	lw	a5,-72(s0)
 36c:	04f77263          	bgeu	a4,a5,3b0 <_vsnprintf+0x188>
 370:	fc042703          	lw	a4,-64(s0)
 374:	00900793          	li	a5,9
 378:	00e7cc63          	blt	a5,a4,390 <_vsnprintf+0x168>
 37c:	fc042783          	lw	a5,-64(s0)
 380:	0ff7f793          	andi	a5,a5,255
 384:	03078793          	addi	a5,a5,48
 388:	0ff7f793          	andi	a5,a5,255
 38c:	0140006f          	j	3a0 <_vsnprintf+0x178>
 390:	fc042783          	lw	a5,-64(s0)
 394:	0ff7f793          	andi	a5,a5,255
 398:	05778793          	addi	a5,a5,87
 39c:	0ff7f793          	andi	a5,a5,255
 3a0:	fbc42683          	lw	a3,-68(s0)
 3a4:	fe442703          	lw	a4,-28(s0)
 3a8:	00e68733          	add	a4,a3,a4
 3ac:	00f70023          	sb	a5,0(a4)
 3b0:	fe442783          	lw	a5,-28(s0)
 3b4:	00178793          	addi	a5,a5,1
 3b8:	fef42223          	sw	a5,-28(s0)
 3bc:	fe042783          	lw	a5,-32(s0)
 3c0:	fff78793          	addi	a5,a5,-1
 3c4:	fef42023          	sw	a5,-32(s0)
 3c8:	fe042783          	lw	a5,-32(s0)
 3cc:	f607dce3          	bgez	a5,344 <_vsnprintf+0x11c>
 3d0:	fe042423          	sw	zero,-24(s0)
 3d4:	fe042623          	sw	zero,-20(s0)
 3d8:	2700006f          	j	648 <_vsnprintf+0x420>
 3dc:	fe842783          	lw	a5,-24(s0)
 3e0:	00078c63          	beqz	a5,3f8 <_vsnprintf+0x1d0>
 3e4:	fb042783          	lw	a5,-80(s0)
 3e8:	00478713          	addi	a4,a5,4
 3ec:	fae42823          	sw	a4,-80(s0)
 3f0:	0007a783          	lw	a5,0(a5)
 3f4:	0140006f          	j	408 <_vsnprintf+0x1e0>
 3f8:	fb042783          	lw	a5,-80(s0)
 3fc:	00478713          	addi	a4,a5,4
 400:	fae42823          	sw	a4,-80(s0)
 404:	0007a783          	lw	a5,0(a5)
 408:	fcf42e23          	sw	a5,-36(s0)
 40c:	fdc42783          	lw	a5,-36(s0)
 410:	0407d263          	bgez	a5,454 <_vsnprintf+0x22c>
 414:	fdc42783          	lw	a5,-36(s0)
 418:	40f007b3          	neg	a5,a5
 41c:	fcf42e23          	sw	a5,-36(s0)
 420:	fbc42783          	lw	a5,-68(s0)
 424:	02078263          	beqz	a5,448 <_vsnprintf+0x220>
 428:	fe442703          	lw	a4,-28(s0)
 42c:	fb842783          	lw	a5,-72(s0)
 430:	00f77c63          	bgeu	a4,a5,448 <_vsnprintf+0x220>
 434:	fbc42703          	lw	a4,-68(s0)
 438:	fe442783          	lw	a5,-28(s0)
 43c:	00f707b3          	add	a5,a4,a5
 440:	02d00713          	li	a4,45
 444:	00e78023          	sb	a4,0(a5)
 448:	fe442783          	lw	a5,-28(s0)
 44c:	00178793          	addi	a5,a5,1
 450:	fef42223          	sw	a5,-28(s0)
 454:	00100793          	li	a5,1
 458:	fcf42c23          	sw	a5,-40(s0)
 45c:	fdc42783          	lw	a5,-36(s0)
 460:	fcf42a23          	sw	a5,-44(s0)
 464:	0100006f          	j	474 <_vsnprintf+0x24c>
 468:	fd842783          	lw	a5,-40(s0)
 46c:	00178793          	addi	a5,a5,1
 470:	fcf42c23          	sw	a5,-40(s0)
 474:	fd442703          	lw	a4,-44(s0)
 478:	00a00793          	li	a5,10
 47c:	02f747b3          	div	a5,a4,a5
 480:	fcf42a23          	sw	a5,-44(s0)
 484:	fd442783          	lw	a5,-44(s0)
 488:	fe0790e3          	bnez	a5,468 <_vsnprintf+0x240>
 48c:	fd842783          	lw	a5,-40(s0)
 490:	fff78793          	addi	a5,a5,-1
 494:	fcf42823          	sw	a5,-48(s0)
 498:	06c0006f          	j	504 <_vsnprintf+0x2dc>
 49c:	fbc42783          	lw	a5,-68(s0)
 4a0:	04078463          	beqz	a5,4e8 <_vsnprintf+0x2c0>
 4a4:	fd042703          	lw	a4,-48(s0)
 4a8:	fe442783          	lw	a5,-28(s0)
 4ac:	00f707b3          	add	a5,a4,a5
 4b0:	fb842703          	lw	a4,-72(s0)
 4b4:	02e7fa63          	bgeu	a5,a4,4e8 <_vsnprintf+0x2c0>
 4b8:	fdc42703          	lw	a4,-36(s0)
 4bc:	00a00793          	li	a5,10
 4c0:	02f767b3          	rem	a5,a4,a5
 4c4:	0ff7f713          	andi	a4,a5,255
 4c8:	fd042683          	lw	a3,-48(s0)
 4cc:	fe442783          	lw	a5,-28(s0)
 4d0:	00f687b3          	add	a5,a3,a5
 4d4:	fbc42683          	lw	a3,-68(s0)
 4d8:	00f687b3          	add	a5,a3,a5
 4dc:	03070713          	addi	a4,a4,48
 4e0:	0ff77713          	andi	a4,a4,255
 4e4:	00e78023          	sb	a4,0(a5)
 4e8:	fdc42703          	lw	a4,-36(s0)
 4ec:	00a00793          	li	a5,10
 4f0:	02f747b3          	div	a5,a4,a5
 4f4:	fcf42e23          	sw	a5,-36(s0)
 4f8:	fd042783          	lw	a5,-48(s0)
 4fc:	fff78793          	addi	a5,a5,-1
 500:	fcf42823          	sw	a5,-48(s0)
 504:	fd042783          	lw	a5,-48(s0)
 508:	f807dae3          	bgez	a5,49c <_vsnprintf+0x274>
 50c:	fd842783          	lw	a5,-40(s0)
 510:	fe442703          	lw	a4,-28(s0)
 514:	00f707b3          	add	a5,a4,a5
 518:	fef42223          	sw	a5,-28(s0)
 51c:	fe042423          	sw	zero,-24(s0)
 520:	fe042623          	sw	zero,-20(s0)
 524:	1240006f          	j	648 <_vsnprintf+0x420>
 528:	fb042783          	lw	a5,-80(s0)
 52c:	00478713          	addi	a4,a5,4
 530:	fae42823          	sw	a4,-80(s0)
 534:	0007a783          	lw	a5,0(a5)
 538:	fcf42623          	sw	a5,-52(s0)
 53c:	0480006f          	j	584 <_vsnprintf+0x35c>
 540:	fbc42783          	lw	a5,-68(s0)
 544:	02078463          	beqz	a5,56c <_vsnprintf+0x344>
 548:	fe442703          	lw	a4,-28(s0)
 54c:	fb842783          	lw	a5,-72(s0)
 550:	00f77e63          	bgeu	a4,a5,56c <_vsnprintf+0x344>
 554:	fbc42703          	lw	a4,-68(s0)
 558:	fe442783          	lw	a5,-28(s0)
 55c:	00f707b3          	add	a5,a4,a5
 560:	fcc42703          	lw	a4,-52(s0)
 564:	00074703          	lbu	a4,0(a4)
 568:	00e78023          	sb	a4,0(a5)
 56c:	fe442783          	lw	a5,-28(s0)
 570:	00178793          	addi	a5,a5,1
 574:	fef42223          	sw	a5,-28(s0)
 578:	fcc42783          	lw	a5,-52(s0)
 57c:	00178793          	addi	a5,a5,1
 580:	fcf42623          	sw	a5,-52(s0)
 584:	fcc42783          	lw	a5,-52(s0)
 588:	0007c783          	lbu	a5,0(a5)
 58c:	fa079ae3          	bnez	a5,540 <_vsnprintf+0x318>
 590:	fe042423          	sw	zero,-24(s0)
 594:	fe042623          	sw	zero,-20(s0)
 598:	0b00006f          	j	648 <_vsnprintf+0x420>
 59c:	fbc42783          	lw	a5,-68(s0)
 5a0:	02078a63          	beqz	a5,5d4 <_vsnprintf+0x3ac>
 5a4:	fe442703          	lw	a4,-28(s0)
 5a8:	fb842783          	lw	a5,-72(s0)
 5ac:	02f77463          	bgeu	a4,a5,5d4 <_vsnprintf+0x3ac>
 5b0:	fb042783          	lw	a5,-80(s0)
 5b4:	00478713          	addi	a4,a5,4
 5b8:	fae42823          	sw	a4,-80(s0)
 5bc:	0007a683          	lw	a3,0(a5)
 5c0:	fbc42703          	lw	a4,-68(s0)
 5c4:	fe442783          	lw	a5,-28(s0)
 5c8:	00f707b3          	add	a5,a4,a5
 5cc:	0ff6f713          	andi	a4,a3,255
 5d0:	00e78023          	sb	a4,0(a5)
 5d4:	fe442783          	lw	a5,-28(s0)
 5d8:	00178793          	addi	a5,a5,1
 5dc:	fef42223          	sw	a5,-28(s0)
 5e0:	fe042423          	sw	zero,-24(s0)
 5e4:	fe042623          	sw	zero,-20(s0)
 5e8:	0600006f          	j	648 <_vsnprintf+0x420>
 5ec:	fb442783          	lw	a5,-76(s0)
 5f0:	0007c703          	lbu	a4,0(a5)
 5f4:	02500793          	li	a5,37
 5f8:	00f71863          	bne	a4,a5,608 <_vsnprintf+0x3e0>
 5fc:	00100793          	li	a5,1
 600:	fef42623          	sw	a5,-20(s0)
 604:	0440006f          	j	648 <_vsnprintf+0x420>
 608:	fbc42783          	lw	a5,-68(s0)
 60c:	02078463          	beqz	a5,634 <_vsnprintf+0x40c>
 610:	fe442703          	lw	a4,-28(s0)
 614:	fb842783          	lw	a5,-72(s0)
 618:	00f77e63          	bgeu	a4,a5,634 <_vsnprintf+0x40c>
 61c:	fbc42703          	lw	a4,-68(s0)
 620:	fe442783          	lw	a5,-28(s0)
 624:	00f707b3          	add	a5,a4,a5
 628:	fb442703          	lw	a4,-76(s0)
 62c:	00074703          	lbu	a4,0(a4)
 630:	00e78023          	sb	a4,0(a5)
 634:	fe442783          	lw	a5,-28(s0)
 638:	00178793          	addi	a5,a5,1
 63c:	fef42223          	sw	a5,-28(s0)
 640:	0080006f          	j	648 <_vsnprintf+0x420>
 644:	00000013          	nop
 648:	fb442783          	lw	a5,-76(s0)
 64c:	00178793          	addi	a5,a5,1
 650:	faf42a23          	sw	a5,-76(s0)
 654:	fb442783          	lw	a5,-76(s0)
 658:	0007c783          	lbu	a5,0(a5)
 65c:	be079ce3          	bnez	a5,254 <_vsnprintf+0x2c>
 660:	fbc42783          	lw	a5,-68(s0)
 664:	02078263          	beqz	a5,688 <_vsnprintf+0x460>
 668:	fe442703          	lw	a4,-28(s0)
 66c:	fb842783          	lw	a5,-72(s0)
 670:	00f77c63          	bgeu	a4,a5,688 <_vsnprintf+0x460>
 674:	fbc42703          	lw	a4,-68(s0)
 678:	fe442783          	lw	a5,-28(s0)
 67c:	00f707b3          	add	a5,a4,a5
 680:	00078023          	sb	zero,0(a5)
 684:	0280006f          	j	6ac <_vsnprintf+0x484>
 688:	fbc42783          	lw	a5,-68(s0)
 68c:	02078063          	beqz	a5,6ac <_vsnprintf+0x484>
 690:	fb842783          	lw	a5,-72(s0)
 694:	00078c63          	beqz	a5,6ac <_vsnprintf+0x484>
 698:	fb842783          	lw	a5,-72(s0)
 69c:	fff78793          	addi	a5,a5,-1
 6a0:	fbc42703          	lw	a4,-68(s0)
 6a4:	00f707b3          	add	a5,a4,a5
 6a8:	00078023          	sb	zero,0(a5)
 6ac:	fe442783          	lw	a5,-28(s0)
 6b0:	00078513          	mv	a0,a5
 6b4:	04c12403          	lw	s0,76(sp)
 6b8:	05010113          	addi	sp,sp,80
 6bc:	00008067          	ret

000006c0 <_vprintf>:
 6c0:	fd010113          	addi	sp,sp,-48
 6c4:	02112623          	sw	ra,44(sp)
 6c8:	02812423          	sw	s0,40(sp)
 6cc:	03010413          	addi	s0,sp,48
 6d0:	fca42e23          	sw	a0,-36(s0)
 6d4:	fcb42c23          	sw	a1,-40(s0)
 6d8:	fd842683          	lw	a3,-40(s0)
 6dc:	fdc42603          	lw	a2,-36(s0)
 6e0:	fff00593          	li	a1,-1
 6e4:	00000513          	li	a0,0
 6e8:	b41ff0ef          	jal	ra,228 <_vsnprintf>
 6ec:	fea42623          	sw	a0,-20(s0)
 6f0:	fec42783          	lw	a5,-20(s0)
 6f4:	00178793          	addi	a5,a5,1
 6f8:	00078713          	mv	a4,a5
 6fc:	07f00793          	li	a5,127
 700:	00e7f863          	bgeu	a5,a4,710 <_vprintf+0x50>
 704:	0d400513          	li	a0,212
 708:	ad1ff0ef          	jal	ra,1d8 <uart_puts>
 70c:	0000006f          	j	70c <_vprintf+0x4c>
 710:	fec42783          	lw	a5,-20(s0)
 714:	00178793          	addi	a5,a5,1
 718:	fd842683          	lw	a3,-40(s0)
 71c:	fdc42603          	lw	a2,-36(s0)
 720:	00078593          	mv	a1,a5
 724:	100007b7          	lui	a5,0x10000
 728:	00078513          	mv	a0,a5
 72c:	afdff0ef          	jal	ra,228 <_vsnprintf>
 730:	100007b7          	lui	a5,0x10000
 734:	00078513          	mv	a0,a5
 738:	aa1ff0ef          	jal	ra,1d8 <uart_puts>
 73c:	fec42783          	lw	a5,-20(s0)
 740:	00078513          	mv	a0,a5
 744:	02c12083          	lw	ra,44(sp)
 748:	02812403          	lw	s0,40(sp)
 74c:	03010113          	addi	sp,sp,48
 750:	00008067          	ret

00000754 <printf>:
 754:	fb010113          	addi	sp,sp,-80
 758:	02112623          	sw	ra,44(sp)
 75c:	02812423          	sw	s0,40(sp)
 760:	03010413          	addi	s0,sp,48
 764:	fca42e23          	sw	a0,-36(s0)
 768:	00b42223          	sw	a1,4(s0)
 76c:	00c42423          	sw	a2,8(s0)
 770:	00d42623          	sw	a3,12(s0)
 774:	00e42823          	sw	a4,16(s0)
 778:	00f42a23          	sw	a5,20(s0)
 77c:	01042c23          	sw	a6,24(s0)
 780:	01142e23          	sw	a7,28(s0)
 784:	fe042623          	sw	zero,-20(s0)
 788:	02040793          	addi	a5,s0,32
 78c:	fe478793          	addi	a5,a5,-28 # fffffe4 <__stack_size+0xffff7e4>
 790:	fef42423          	sw	a5,-24(s0)
 794:	fe842783          	lw	a5,-24(s0)
 798:	00078593          	mv	a1,a5
 79c:	fdc42503          	lw	a0,-36(s0)
 7a0:	f21ff0ef          	jal	ra,6c0 <_vprintf>
 7a4:	fea42623          	sw	a0,-20(s0)
 7a8:	fec42783          	lw	a5,-20(s0)
 7ac:	00078513          	mv	a0,a5
 7b0:	02c12083          	lw	ra,44(sp)
 7b4:	02812403          	lw	s0,40(sp)
 7b8:	05010113          	addi	sp,sp,80
 7bc:	00008067          	ret
